target datalayout = "e-m:e-p270:32:32-p271:32:32-p272:64:64-i64:64-i128:128-f80:128-n8:16:32:64-S128"
target triple = "x86_64-pc-linux-gnu"

%"struct.duckdb_zstd::buffer_s" = type { ptr, i64 }
%"struct.duckdb_zstd::range_t" = type { ptr, i64 }
%"struct.duckdb_zstd::ZSTD_customMem" = type { ptr, ptr, ptr }
%"struct.duckdb_zstd::ZSTDMT_CCtx_s" = type { ptr, ptr, ptr, ptr, ptr, %"struct.duckdb_zstd::ZSTD_CCtx_params_s", i64, i64, i32, %"struct.duckdb_zstd::inBuff_t", %"struct.duckdb_zstd::roundBuff_t", %"struct.duckdb_zstd::serialState_t", %"struct.duckdb_zstd::rsyncState_t", i32, i32, i32, i32, i32, i64, i64, i64, %"struct.duckdb_zstd::ZSTD_customMem", ptr, ptr, i8 }
%"struct.duckdb_zstd::ZSTD_CCtx_params_s" = type { i32, %"struct.duckdb_zstd::ZSTD_compressionParameters", %"struct.duckdb_zstd::ZSTD_frameParameters", i32, i32, i64, i32, i32, i32, i32, i64, i32, i32, %"struct.duckdb_zstd::ldmParams_t", i32, i32, i32, i32, i32, i32, i32, i32, %"struct.duckdb_zstd::ZSTD_customMem", i32, i32, ptr, ptr, i64, i32 }
%"struct.duckdb_zstd::ZSTD_compressionParameters" = type { i32, i32, i32, i32, i32, i32, i32 }
%"struct.duckdb_zstd::ZSTD_frameParameters" = type { i32, i32, i32 }
%"struct.duckdb_zstd::ldmParams_t" = type { i32, i32, i32, i32, i32, i32 }
%"struct.duckdb_zstd::inBuff_t" = type { %"struct.duckdb_zstd::range_t", %"struct.duckdb_zstd::buffer_s", i64 }
%"struct.duckdb_zstd::roundBuff_t" = type { ptr, i64, i64 }
%"struct.duckdb_zstd::serialState_t" = type { i32, i32, %"struct.duckdb_zstd::ZSTD_CCtx_params_s", %"struct.duckdb_zstd::ldmState_t", %"struct.duckdb_zstd::XXH64_state_s", i32, i32, i32, %"struct.duckdb_zstd::ZSTD_window_t" }
%"struct.duckdb_zstd::ldmState_t" = type { %"struct.duckdb_zstd::ZSTD_window_t", ptr, i32, ptr, [64 x i64], [64 x %"struct.duckdb_zstd::ldmMatchCandidate_t"] }
%"struct.duckdb_zstd::ldmMatchCandidate_t" = type { ptr, i32, i32, ptr }
%"struct.duckdb_zstd::XXH64_state_s" = type { i64, i64, i64, i64, i64, [4 x i64], i32, [2 x i32] }
%"struct.duckdb_zstd::ZSTD_window_t" = type { ptr, ptr, ptr, i32, i32, i32 }
%"struct.duckdb_zstd::rsyncState_t" = type { i64, i64, i64 }
%"struct.duckdb_zstd::ZSTDMT_jobDescription" = type { i64, i64, i32, i32, ptr, ptr, ptr, ptr, %"struct.duckdb_zstd::buffer_s", %"struct.duckdb_zstd::range_t", %"struct.duckdb_zstd::range_t", i32, i32, i32, %"struct.duckdb_zstd::ZSTD_CCtx_params_s", ptr, i64, i64, i32 }

; Function Attrs: mustprogress nounwind uwtable
define internal noundef i32 @_ZN11duckdb_zstdL11ERR_isErrorEm(i64 noundef %0) #0 {
  %2 = alloca i64, align 8
  store i64 %0, ptr %2, align 8, !tbaa !52
  %3 = load i64, ptr %2, align 8, !tbaa !52
  %4 = icmp ugt i64 %3, -120
  %5 = zext i1 %4 to i32
  ret i32 %5
}

; Function Attrs: mustprogress uwtable
define noundef i64 @_ZN11duckdb_zstd17ZSTDMT_toFlushNowEPNS_13ZSTDMT_CCtx_sE(ptr noundef %0) #1 {
  %2 = alloca i64, align 8
  %3 = alloca ptr, align 8
  %4 = alloca i64, align 8
  %5 = alloca i32, align 4
  %6 = alloca i32, align 4
  %7 = alloca i32, align 4
  %8 = alloca ptr, align 8
  %9 = alloca i64, align 8
  %10 = alloca i64, align 8
  %11 = alloca i64, align 8
  store ptr %0, ptr %3, align 8, !tbaa !10
  call void @llvm.lifetime.start.p0(i64 8, ptr %4) #12
  call void @llvm.lifetime.start.p0(i64 4, ptr %5) #12
  %12 = load ptr, ptr %3, align 8, !tbaa !10
  %13 = getelementptr inbounds nuw %"struct.duckdb_zstd::ZSTDMT_CCtx_s", ptr %12, i32 0, i32 14
  %14 = load i32, ptr %13, align 4, !tbaa !99
  store i32 %14, ptr %5, align 4, !tbaa !3
  %15 = load i32, ptr %5, align 4, !tbaa !3
  %16 = load ptr, ptr %3, align 8, !tbaa !10
  %17 = getelementptr inbounds nuw %"struct.duckdb_zstd::ZSTDMT_CCtx_s", ptr %16, i32 0, i32 15
  %18 = load i32, ptr %17, align 8, !tbaa !95
  %19 = icmp eq i32 %15, %18
  br i1 %19, label %20, label %21

20:                                               ; preds = %1
  store i64 0, ptr %2, align 8
  store i32 1, ptr %6, align 4
  br label %62

21:                                               ; preds = %1
  call void @llvm.lifetime.start.p0(i64 4, ptr %7) #12
  %22 = load i32, ptr %5, align 4, !tbaa !3
  %23 = load ptr, ptr %3, align 8, !tbaa !10
  %24 = getelementptr inbounds nuw %"struct.duckdb_zstd::ZSTDMT_CCtx_s", ptr %23, i32 0, i32 13
  %25 = load i32, ptr %24, align 8, !tbaa !40
  %26 = and i32 %22, %25
  store i32 %26, ptr %7, align 4, !tbaa !3
  call void @llvm.lifetime.start.p0(i64 8, ptr %8) #12
  %27 = load ptr, ptr %3, align 8, !tbaa !10
  %28 = getelementptr inbounds nuw %"struct.duckdb_zstd::ZSTDMT_CCtx_s", ptr %27, i32 0, i32 1
  %29 = load ptr, ptr %28, align 8, !tbaa !39
  %30 = load i32, ptr %7, align 4, !tbaa !3
  %31 = zext i32 %30 to i64
  %32 = getelementptr inbounds nuw %"struct.duckdb_zstd::ZSTDMT_jobDescription", ptr %29, i64 %31
  store ptr %32, ptr %8, align 8, !tbaa !42
  call void @llvm.lifetime.start.p0(i64 8, ptr %9) #12
  %33 = load ptr, ptr %8, align 8, !tbaa !42
  %34 = getelementptr inbounds nuw %"struct.duckdb_zstd::ZSTDMT_jobDescription", ptr %33, i32 0, i32 1
  %35 = load i64, ptr %34, align 8, !tbaa !100
  store i64 %35, ptr %9, align 8, !tbaa !52
  call void @llvm.lifetime.start.p0(i64 8, ptr %10) #12
  %36 = load i64, ptr %9, align 8, !tbaa !52
  %37 = call noundef i32 @_ZN11duckdb_zstdL11ERR_isErrorEm(i64 noundef %36)
  %38 = icmp ne i32 %37, 0
  br i1 %38, label %39, label %40

39:                                               ; preds = %21
  br label %42

40:                                               ; preds = %21
  %41 = load i64, ptr %9, align 8, !tbaa !52
  br label %42

42:                                               ; preds = %40, %39
  %43 = phi i64 [ 0, %39 ], [ %41, %40 ]
  store i64 %43, ptr %10, align 8, !tbaa !52
  call void @llvm.lifetime.start.p0(i64 8, ptr %11) #12
  %44 = load i64, ptr %9, align 8, !tbaa !52
  %45 = call noundef i32 @_ZN11duckdb_zstdL11ERR_isErrorEm(i64 noundef %44)
  %46 = icmp ne i32 %45, 0
  br i1 %46, label %47, label %48

47:                                               ; preds = %42
  br label %52

48:                                               ; preds = %42
  %49 = load ptr, ptr %8, align 8, !tbaa !42
  %50 = getelementptr inbounds nuw %"struct.duckdb_zstd::ZSTDMT_jobDescription", ptr %49, i32 0, i32 17
  %51 = load i64, ptr %50, align 8, !tbaa !101
  br label %52

52:                                               ; preds = %48, %47
  %53 = phi i64 [ 0, %47 ], [ %51, %48 ]
  store i64 %53, ptr %11, align 8, !tbaa !52
  %54 = load i64, ptr %10, align 8, !tbaa !52
  %55 = load i64, ptr %11, align 8, !tbaa !52
  %56 = sub i64 %54, %55
  store i64 %56, ptr %4, align 8, !tbaa !52
  %57 = load i64, ptr %4, align 8, !tbaa !52
  %58 = icmp eq i64 %57, 0
  br i1 %58, label %59, label %60

59:                                               ; preds = %52
  br label %60

60:                                               ; preds = %59, %52
  call void @llvm.lifetime.end.p0(i64 8, ptr %11) #12
  call void @llvm.lifetime.end.p0(i64 8, ptr %10) #12
  call void @llvm.lifetime.end.p0(i64 8, ptr %9) #12
  call void @llvm.lifetime.end.p0(i64 8, ptr %8) #12
  call void @llvm.lifetime.end.p0(i64 4, ptr %7) #12
  %61 = load i64, ptr %4, align 8, !tbaa !52
  store i64 %61, ptr %2, align 8
  store i32 1, ptr %6, align 4
  br label %62

62:                                               ; preds = %60, %20
  call void @llvm.lifetime.end.p0(i64 4, ptr %5) #12
  call void @llvm.lifetime.end.p0(i64 8, ptr %4) #12
  %63 = load i64, ptr %2, align 8
  ret i64 %63
}