; Function Attrs: mustprogress nofree norecurse nosync nounwind willreturn memory(read, inaccessiblemem: none) uwtable
define noundef i64 @_ZN11duckdb_zstd17ZSTDMT_toFlushNowEPNS_13ZSTDMT_CCtx_sE(ptr noundef readonly captures(none) %0) local_unnamed_addr #6 {
  %2 = getelementptr inbounds nuw i8, ptr %0, i64 2852
  %3 = load i32, ptr %2, align 4, !tbaa !84
  %4 = getelementptr inbounds nuw i8, ptr %0, i64 2856
  %5 = load i32, ptr %4, align 8, !tbaa !80
  %6 = icmp eq i32 %3, %5
  br i1 %6, label %25, label %7

7:                                                ; preds = %1
  %8 = getelementptr inbounds nuw i8, ptr %0, i64 2848
  %9 = load i32, ptr %8, align 8, !tbaa !47
  %10 = and i32 %9, %3
  %11 = getelementptr inbounds nuw i8, ptr %0, i64 8
  %12 = load ptr, ptr %11, align 8, !tbaa !35
  %13 = zext i32 %10 to i64
  %14 = getelementptr inbounds nuw %"struct.duckdb_zstd::ZSTDMT_jobDescription", ptr %12, i64 %13
  %15 = getelementptr inbounds nuw i8, ptr %14, i64 8
  %16 = load i64, ptr %15, align 8, !tbaa !85
  %17 = icmp ult i64 %16, -119
  %18 = select i1 %17, i64 %16, i64 0
  br i1 %17, label %19, label %22

19:                                               ; preds = %7
  %20 = getelementptr inbounds nuw i8, ptr %14, i64 352
  %21 = load i64, ptr %20, align 8, !tbaa !86
  br label %22

22:                                               ; preds = %7, %19
  %23 = phi i64 [ %21, %19 ], [ 0, %7 ]
  %24 = sub i64 %18, %23
  br label %25

25:                                               ; preds = %1, %22
  %.0 = phi i64 [ %24, %22 ], [ 0, %1 ]
  ret i64 %.0
}